; Function Attrs: nounwind sspstrong uwtable
define internal void @sifive_pdma_class_init(ptr noundef %klass, ptr readnone captures(none) %data) #0 {
entry:
  %call.i = tail call ptr @object_class_dynamic_cast_assert(ptr noundef %klass, ptr noundef nonnull @.str.3, ptr noundef nonnull @.str.4, i32 noundef 77, ptr noundef nonnull @__func__.DEVICE_CLASS) #4
  %desc = getelementptr inbounds nuw i8, ptr %call.i, i64 112
  store ptr @.str.2, ptr %desc, align 8
  %realize = getelementptr inbounds nuw i8, ptr %call.i, i64 144
  store ptr @sifive_pdma_realize, ptr %realize, align 8
  ret void
}